; Function Attrs: nounwind uwtable
define internal fastcc void @zend_generator_throw_exception(ptr noundef %0, ptr noundef %1) unnamed_addr #0 {
  %3 = load ptr, ptr getelementptr inbounds nuw (i8, ptr @executor_globals, i64 512), align 8, !tbaa !104
  %4 = getelementptr inbounds nuw i8, ptr %0, i64 56
  %5 = load ptr, ptr %4, align 8, !tbaa !56
  store ptr %5, ptr getelementptr inbounds nuw (i8, ptr @executor_globals, i64 512), align 8, !tbaa !104
  %6 = getelementptr inbounds nuw i8, ptr %5, i64 48
  store ptr %3, ptr %6, align 8, !tbaa !55
  %.not = icmp eq ptr %1, null
  br i1 %.not, label %8, label %7

7:                                                ; preds = %2
  tail call void @zend_throw_exception_object(ptr noundef nonnull %1) #11
  br label %zend_rethrow_exception.exit

8:                                                ; preds = %2
  %9 = load ptr, ptr %5, align 8, !tbaa !82
  %10 = getelementptr inbounds nuw i8, ptr %9, i64 28
  %11 = load i8, ptr %10, align 4, !tbaa !103
  %.not.i = icmp eq i8 %11, -107
  br i1 %.not.i, label %zend_rethrow_exception.exit, label %12

12:                                               ; preds = %8
  store ptr %9, ptr getelementptr inbounds nuw (i8, ptr @executor_globals, i64 976), align 8, !tbaa !112
  store ptr getelementptr inbounds nuw (i8, ptr @executor_globals, i64 984), ptr %5, align 8, !tbaa !82
  br label %zend_rethrow_exception.exit

zend_rethrow_exception.exit:                      ; preds = %12, %8, %7
  %13 = getelementptr inbounds nuw i8, ptr %0, i64 144
  %14 = load i8, ptr %13, align 8, !tbaa !24
  %.not9 = icmp eq i8 %14, 0
  br i1 %.not9, label %17, label %15, !prof !58

15:                                               ; preds = %zend_rethrow_exception.exit
  %16 = getelementptr inbounds nuw i8, ptr %0, i64 136
  tail call void @zval_ptr_dtor(ptr noundef nonnull %16) #11
  store i32 0, ptr %13, align 8, !tbaa !24
  br label %17

17:                                               ; preds = %15, %zend_rethrow_exception.exit
  store ptr %3, ptr getelementptr inbounds nuw (i8, ptr @executor_globals, i64 512), align 8, !tbaa !104
  ret void
}